; Function Attrs: nounwind uwtable
define noundef ptr @Wlc_BlastDecoder2(ptr noundef %0, ptr noundef %1, i32 noundef %2, ptr readnone captures(none) %3, ptr noundef returned initializes((4, 8)) %4) local_unnamed_addr #2 {
  %6 = tail call ptr @Wlc_BlastDecoder2_rec(ptr noundef %0, ptr noundef %1, i32 noundef %2)
  %7 = getelementptr inbounds nuw i8, ptr %4, i64 4
  store i32 0, ptr %7, align 4, !tbaa !23
  %8 = getelementptr i8, ptr %6, i64 4
  %.val67.i = load i32, ptr %8, align 4, !tbaa !23
  %9 = icmp sgt i32 %.val67.i, 0
  %10 = getelementptr i8, ptr %6, i64 8
  br i1 %9, label %.lr.ph.i, label %Vec_IntAppend.exit

.lr.ph.i:                                         ; preds = %5
  %.phi.trans.insert.i.i = getelementptr inbounds nuw i8, ptr %4, i64 8
  %.val.i = load ptr, ptr %10, align 8, !tbaa !22
  br label %11

11:                                               ; preds = %Vec_IntPush.exit.i, %.lr.ph.i
  %indvars.iv.i = phi i64 [ 0, %.lr.ph.i ], [ %indvars.iv.next.i, %Vec_IntPush.exit.i ]
  %12 = getelementptr inbounds nuw i32, ptr %.val.i, i64 %indvars.iv.i
  %13 = load i32, ptr %12, align 4, !tbaa !3
  %14 = load i32, ptr %7, align 4, !tbaa !23
  %15 = load i32, ptr %4, align 8, !tbaa !21
  %16 = icmp eq i32 %14, %15
  br i1 %16, label %17, label %.Vec_IntGrow.exit10_crit_edge.i.i

.Vec_IntGrow.exit10_crit_edge.i.i:                ; preds = %11
  %.pre.i.i = load ptr, ptr %.phi.trans.insert.i.i, align 8, !tbaa !22
  br label %Vec_IntPush.exit.i

17:                                               ; preds = %11
  %18 = icmp slt i32 %14, 16
  br i1 %18, label %19, label %26

19:                                               ; preds = %17
  %20 = load ptr, ptr %.phi.trans.insert.i.i, align 8, !tbaa !22
  %.not9.i.i.i = icmp eq ptr %20, null
  br i1 %.not9.i.i.i, label %23, label %21

21:                                               ; preds = %19
  %22 = tail call dereferenceable_or_null(64) ptr @realloc(ptr noundef nonnull %20, i64 noundef 64) #21
  br label %Vec_IntGrow.exit.i.i

23:                                               ; preds = %19
  %24 = tail call noalias dereferenceable_or_null(64) ptr @malloc(i64 noundef 64) #22
  br label %Vec_IntGrow.exit.i.i

Vec_IntGrow.exit.i.i:                             ; preds = %23, %21
  %25 = phi ptr [ %22, %21 ], [ %24, %23 ]
  store ptr %25, ptr %.phi.trans.insert.i.i, align 8, !tbaa !22
  store i32 16, ptr %4, align 8, !tbaa !21
  br label %Vec_IntPush.exit.i

26:                                               ; preds = %17
  %27 = shl nuw nsw i32 %14, 1
  %28 = load ptr, ptr %.phi.trans.insert.i.i, align 8, !tbaa !22
  %.not9.i9.i.i = icmp eq ptr %28, null
  %29 = zext nneg i32 %27 to i64
  %30 = shl nuw nsw i64 %29, 2
  br i1 %.not9.i9.i.i, label %33, label %31

31:                                               ; preds = %26
  %32 = tail call ptr @realloc(ptr noundef nonnull %28, i64 noundef %30) #21
  br label %35

33:                                               ; preds = %26
  %34 = tail call noalias ptr @malloc(i64 noundef %30) #22
  br label %35

35:                                               ; preds = %33, %31
  %36 = phi ptr [ %32, %31 ], [ %34, %33 ]
  store ptr %36, ptr %.phi.trans.insert.i.i, align 8, !tbaa !22
  store i32 %27, ptr %4, align 8, !tbaa !21
  br label %Vec_IntPush.exit.i

Vec_IntPush.exit.i:                               ; preds = %35, %Vec_IntGrow.exit.i.i, %.Vec_IntGrow.exit10_crit_edge.i.i
  %37 = phi ptr [ %.pre.i.i, %.Vec_IntGrow.exit10_crit_edge.i.i ], [ %36, %35 ], [ %25, %Vec_IntGrow.exit.i.i ]
  %38 = load i32, ptr %7, align 4, !tbaa !23
  %39 = add nsw i32 %38, 1
  store i32 %39, ptr %7, align 4, !tbaa !23
  %40 = sext i32 %38 to i64
  %41 = getelementptr inbounds i32, ptr %37, i64 %40
  store i32 %13, ptr %41, align 4, !tbaa !3
  %indvars.iv.next.i = add nuw nsw i64 %indvars.iv.i, 1
  %.val6.i = load i32, ptr %8, align 4, !tbaa !23
  %42 = sext i32 %.val6.i to i64
  %43 = icmp slt i64 %indvars.iv.next.i, %42
  br i1 %43, label %11, label %Vec_IntAppend.exit.thread, !llvm.loop !180

Vec_IntAppend.exit:                               ; preds = %5
  %.pre = load ptr, ptr %10, align 8, !tbaa !22
  %.not.i = icmp eq ptr %.pre, null
  br i1 %.not.i, label %Vec_IntFree.exit, label %Vec_IntAppend.exit.thread

Vec_IntAppend.exit.thread:                        ; preds = %Vec_IntPush.exit.i, %Vec_IntAppend.exit
  %44 = phi ptr [ %.pre, %Vec_IntAppend.exit ], [ %.val.i, %Vec_IntPush.exit.i ]
  tail call void @free(ptr noundef nonnull %44) #23
  br label %Vec_IntFree.exit

Vec_IntFree.exit:                                 ; preds = %Vec_IntAppend.exit, %Vec_IntAppend.exit.thread
  tail call void @free(ptr noundef nonnull %6) #23
  ret ptr %4
}